
night:     ファイル形式 elf32-littleriscv


セクション .text.init の逆アセンブル:

80000000 <_start>:
80000000:	0100006f          	j	80000010 <main>

セクション .text の逆アセンブル:

80000010 <main>:
80000010:	fd010113          	addi	sp,sp,-48
80000014:	02112623          	sw	ra,44(sp)
80000018:	02812423          	sw	s0,40(sp)
8000001c:	03010413          	addi	s0,sp,48
80000020:	fe042023          	sw	zero,-32(s0)
80000024:	fc042e23          	sw	zero,-36(s0)
80000028:	0cc0006f          	j	800000f4 <main+0xe4>
8000002c:	00100793          	li	a5,1
80000030:	fef42223          	sw	a5,-28(s0)
80000034:	fe042623          	sw	zero,-20(s0)
80000038:	0500006f          	j	80000088 <main+0x78>
8000003c:	fe442783          	lw	a5,-28(s0)
80000040:	00179793          	slli	a5,a5,0x1
80000044:	fef42223          	sw	a5,-28(s0)
80000048:	fe442783          	lw	a5,-28(s0)
8000004c:	0ff7f793          	andi	a5,a5,255
80000050:	00078513          	mv	a0,a5
80000054:	0c0000ef          	jal	ra,80000114 <led_out>
80000058:	fe042423          	sw	zero,-24(s0)
8000005c:	0100006f          	j	8000006c <main+0x5c>
80000060:	fe842783          	lw	a5,-24(s0)
80000064:	00178793          	addi	a5,a5,1
80000068:	fef42423          	sw	a5,-24(s0)
8000006c:	fe842703          	lw	a4,-24(s0)
80000070:	002dc7b7          	lui	a5,0x2dc
80000074:	6bf78793          	addi	a5,a5,1727 # 2dc6bf <_start-0x7fd23941>
80000078:	fee7d4e3          	ble	a4,a5,80000060 <main+0x50>
8000007c:	fec42783          	lw	a5,-20(s0)
80000080:	00178793          	addi	a5,a5,1
80000084:	fef42623          	sw	a5,-20(s0)
80000088:	fec42703          	lw	a4,-20(s0)
8000008c:	00600793          	li	a5,6
80000090:	fae7d6e3          	ble	a4,a5,8000003c <main+0x2c>
80000094:	fe042623          	sw	zero,-20(s0)
80000098:	0500006f          	j	800000e8 <main+0xd8>
8000009c:	fe442783          	lw	a5,-28(s0)
800000a0:	4017d793          	srai	a5,a5,0x1
800000a4:	fef42223          	sw	a5,-28(s0)
800000a8:	fe442783          	lw	a5,-28(s0)
800000ac:	0ff7f793          	andi	a5,a5,255
800000b0:	00078513          	mv	a0,a5
800000b4:	060000ef          	jal	ra,80000114 <led_out>
800000b8:	fe042423          	sw	zero,-24(s0)
800000bc:	0100006f          	j	800000cc <main+0xbc>
800000c0:	fe842783          	lw	a5,-24(s0)
800000c4:	00178793          	addi	a5,a5,1
800000c8:	fef42423          	sw	a5,-24(s0)
800000cc:	fe842703          	lw	a4,-24(s0)
800000d0:	002dc7b7          	lui	a5,0x2dc
800000d4:	6bf78793          	addi	a5,a5,1727 # 2dc6bf <_start-0x7fd23941>
800000d8:	fee7d4e3          	ble	a4,a5,800000c0 <main+0xb0>
800000dc:	fec42783          	lw	a5,-20(s0)
800000e0:	00178793          	addi	a5,a5,1
800000e4:	fef42623          	sw	a5,-20(s0)
800000e8:	fec42703          	lw	a4,-20(s0)
800000ec:	00600793          	li	a5,6
800000f0:	fae7d6e3          	ble	a4,a5,8000009c <main+0x8c>
800000f4:	fe042703          	lw	a4,-32(s0)
800000f8:	fdc42783          	lw	a5,-36(s0)
800000fc:	f2f708e3          	beq	a4,a5,8000002c <main+0x1c>
80000100:	00000013          	nop
80000104:	02c12083          	lw	ra,44(sp)
80000108:	02812403          	lw	s0,40(sp)
8000010c:	03010113          	addi	sp,sp,48
80000110:	00008067          	ret

80000114 <led_out>:
80000114:	fe010113          	addi	sp,sp,-32
80000118:	00812e23          	sw	s0,28(sp)
8000011c:	02010413          	addi	s0,sp,32
80000120:	00050793          	mv	a5,a0
80000124:	fef407a3          	sb	a5,-17(s0)
80000128:	00000013          	nop
8000012c:	01c12403          	lw	s0,28(sp)
80000130:	02010113          	addi	sp,sp,32
80000134:	00008067          	ret
