
vga:     ファイル形式 elf32-littleriscv


セクション .text.init の逆アセンブル:

80000000 <_start>:
80000000:	10001117          	auipc	sp,0x10001
80000004:	fff10113          	addi	sp,sp,-1 # 90000fff <_estack>
80000008:	00000517          	auipc	a0,0x0
8000000c:	13850513          	addi	a0,a0,312 # 80000140 <__bss_start>
80000010:	00000597          	auipc	a1,0x0
80000014:	13058593          	addi	a1,a1,304 # 80000140 <__bss_start>
80000018:	00b57863          	bleu	a1,a0,80000028 <clearend>

8000001c <loop>:
8000001c:	00052023          	sw	zero,0(a0)
80000020:	00450513          	addi	a0,a0,4
80000024:	feb56ce3          	bltu	a0,a1,8000001c <loop>

80000028 <clearend>:
80000028:	01c0006f          	j	80000044 <main>
8000002c:	0000                	unimp
8000002e:	0000                	unimp
80000030:	0000                	unimp
80000032:	0000                	unimp
80000034:	0000                	unimp
80000036:	0000                	unimp
80000038:	0000                	unimp
8000003a:	0000                	unimp
8000003c:	0000                	unimp
8000003e:	0000                	unimp
80000040:	0000                	unimp
80000042:	0000                	unimp

セクション .text の逆アセンブル:

80000044 <main>:
80000044:	fe010113          	addi	sp,sp,-32
80000048:	00812e23          	sw	s0,28(sp)
8000004c:	02010413          	addi	s0,sp,32
80000050:	fe042623          	sw	zero,-20(s0)
80000054:	09c0006f          	j	800000f0 <main+0xac>
80000058:	fe042423          	sw	zero,-24(s0)
8000005c:	07c0006f          	j	800000d8 <main+0x94>
80000060:	fec42783          	lw	a5,-20(s0)
80000064:	4047d793          	srai	a5,a5,0x4
80000068:	00f7f713          	andi	a4,a5,15
8000006c:	fe842783          	lw	a5,-24(s0)
80000070:	0f07f793          	andi	a5,a5,240
80000074:	00f76633          	or	a2,a4,a5
80000078:	fe842703          	lw	a4,-24(s0)
8000007c:	fec42783          	lw	a5,-20(s0)
80000080:	00f707b3          	add	a5,a4,a5
80000084:	4047d793          	srai	a5,a5,0x4
80000088:	00879713          	slli	a4,a5,0x8
8000008c:	000017b7          	lui	a5,0x1
80000090:	f0078793          	addi	a5,a5,-256 # f00 <_start-0x7ffff100>
80000094:	00f776b3          	and	a3,a4,a5
80000098:	fec42703          	lw	a4,-20(s0)
8000009c:	00070793          	mv	a5,a4
800000a0:	00479793          	slli	a5,a5,0x4
800000a4:	40e787b3          	sub	a5,a5,a4
800000a8:	00579793          	slli	a5,a5,0x5
800000ac:	00078713          	mv	a4,a5
800000b0:	600007b7          	lui	a5,0x60000
800000b4:	00f70733          	add	a4,a4,a5
800000b8:	fe842783          	lw	a5,-24(s0)
800000bc:	00f707b3          	add	a5,a4,a5
800000c0:	00078713          	mv	a4,a5
800000c4:	00d607b3          	add	a5,a2,a3
800000c8:	00f72023          	sw	a5,0(a4)
800000cc:	fe842783          	lw	a5,-24(s0)
800000d0:	00178793          	addi	a5,a5,1 # 60000001 <_start-0x1fffffff>
800000d4:	fef42423          	sw	a5,-24(s0)
800000d8:	fe842703          	lw	a4,-24(s0)
800000dc:	27f00793          	li	a5,639
800000e0:	f8e7d0e3          	ble	a4,a5,80000060 <main+0x1c>
800000e4:	fec42783          	lw	a5,-20(s0)
800000e8:	00178793          	addi	a5,a5,1
800000ec:	fef42623          	sw	a5,-20(s0)
800000f0:	fec42703          	lw	a4,-20(s0)
800000f4:	1df00793          	li	a5,479
800000f8:	f6e7d0e3          	ble	a4,a5,80000058 <main+0x14>
800000fc:	0000006f          	j	800000fc <main+0xb8>

80000100 <wait>:
80000100:	fd010113          	addi	sp,sp,-48
80000104:	02812623          	sw	s0,44(sp)
80000108:	03010413          	addi	s0,sp,48
8000010c:	fca42e23          	sw	a0,-36(s0)
80000110:	fe042623          	sw	zero,-20(s0)
80000114:	0100006f          	j	80000124 <wait+0x24>
80000118:	fec42783          	lw	a5,-20(s0)
8000011c:	00178793          	addi	a5,a5,1
80000120:	fef42623          	sw	a5,-20(s0)
80000124:	fec42783          	lw	a5,-20(s0)
80000128:	fdc42703          	lw	a4,-36(s0)
8000012c:	fee7e6e3          	bltu	a5,a4,80000118 <wait+0x18>
80000130:	00000013          	nop
80000134:	02c12403          	lw	s0,44(sp)
80000138:	03010113          	addi	sp,sp,48
8000013c:	00008067          	ret
